target datalayout = "e-m:e-p270:32:32-p271:32:32-p272:64:64-i64:64-i128:128-f80:128-n8:16:32:64-S128"
target triple = "x86_64-pc-linux-gnu"

%struct.strbuf = type { i64, i64, ptr }
%union.pthread_mutex_t = type { %struct.__pthread_mutex_s }
%struct.__pthread_mutex_s = type { i32, i32, i32, i32, i32, i16, i16, %struct.__pthread_internal_list }
%struct.__pthread_internal_list = type { ptr, ptr }
%struct.repository = type { ptr, ptr, ptr, ptr, ptr, %struct.strmap, %struct.strmap, %struct.repo_path_cache, ptr, ptr, ptr, ptr, %struct.repo_settings, ptr, ptr, ptr, ptr, ptr, ptr, i32, i32, i32, ptr, ptr, i32, i32, i8 }
%struct.strmap = type { %struct.hashmap, ptr, i8 }
%struct.hashmap = type { ptr, ptr, ptr, i32, i32, i32, i32, i8 }
%struct.repo_path_cache = type { ptr, ptr, ptr, ptr, ptr, ptr, ptr }
%struct.repo_settings = type { i32, i32, i32, i32, i32, i32, i32, i32, i32, i32, i32, i32, ptr, i32, i32, i32, i32, i32, i32, i32, i64, i64, i64 }
%struct.raw_object_store = type { ptr, ptr, ptr, i32, ptr, ptr, i8, %union.pthread_mutex_t, ptr, i8, ptr, ptr, %struct.list_head, %struct.anon, %struct.hashmap, i64, i8 }
%struct.list_head = type { ptr, ptr }
%struct.anon = type { ptr, i32 }
%struct.object_directory = type { ptr, [8 x i32], ptr, ptr, i32, i32, ptr }

@the_repository = external global ptr, align 8
@check_and_freshen_odb.path = internal global %struct.strbuf { i64 0, i64 0, ptr @strbuf_slopbuf }, align 8

; Function Attrs: nounwind uwtable
define internal i32 @freshen_file(ptr noundef %0) #0 {
  %2 = alloca ptr, align 8
  store ptr %0, ptr %2, align 8, !tbaa !12
  %3 = load ptr, ptr %2, align 8, !tbaa !12
  %4 = call i32 @utime(ptr noundef %3, ptr noundef null) #14
  %5 = icmp ne i32 %4, 0
  %6 = xor i1 %5, true
  %7 = zext i1 %6 to i32
  ret i32 %7
}

; Function Attrs: nounwind uwtable
define dso_local i32 @check_and_freshen_file(ptr noundef %0, i32 noundef %1) #0 {
  %3 = alloca i32, align 4
  %4 = alloca ptr, align 8
  %5 = alloca i32, align 4
  store ptr %0, ptr %4, align 8, !tbaa !12
  store i32 %1, ptr %5, align 4, !tbaa !43
  %6 = load ptr, ptr %4, align 8, !tbaa !12
  %7 = call i32 @access(ptr noundef %6, i32 noundef 0) #14
  %8 = icmp ne i32 %7, 0
  br i1 %8, label %9, label %10

9:                                                ; preds = %2
  store i32 0, ptr %3, align 4
  br label %19

10:                                               ; preds = %2
  %11 = load i32, ptr %5, align 4, !tbaa !43
  %12 = icmp ne i32 %11, 0
  br i1 %12, label %13, label %18

13:                                               ; preds = %10
  %14 = load ptr, ptr %4, align 8, !tbaa !12
  %15 = call i32 @freshen_file(ptr noundef %14)
  %16 = icmp ne i32 %15, 0
  br i1 %16, label %18, label %17

17:                                               ; preds = %13
  store i32 0, ptr %3, align 4
  br label %19

18:                                               ; preds = %13, %10
  store i32 1, ptr %3, align 4
  br label %19

19:                                               ; preds = %18, %17, %9
  %20 = load i32, ptr %3, align 4
  ret i32 %20
}

; Function Attrs: nounwind uwtable
define internal i32 @check_and_freshen_odb(ptr noundef %0, ptr noundef %1, i32 noundef %2) #0 {
  %4 = alloca ptr, align 8
  %5 = alloca ptr, align 8
  %6 = alloca i32, align 4
  store ptr %0, ptr %4, align 8, !tbaa !78
  store ptr %1, ptr %5, align 8, !tbaa !14
  store i32 %2, ptr %6, align 4, !tbaa !43
  %7 = load ptr, ptr %4, align 8, !tbaa !78
  %8 = load ptr, ptr %5, align 8, !tbaa !14
  %9 = call ptr @odb_loose_path(ptr noundef %7, ptr noundef @check_and_freshen_odb.path, ptr noundef %8)
  %10 = load ptr, ptr getelementptr inbounds nuw (%struct.strbuf, ptr @check_and_freshen_odb.path, i32 0, i32 2), align 8, !tbaa !56
  %11 = load i32, ptr %6, align 4, !tbaa !43
  %12 = call i32 @check_and_freshen_file(ptr noundef %10, i32 noundef %11)
  ret i32 %12
}

; Function Attrs: nounwind uwtable
define internal i32 @check_and_freshen_nonlocal(ptr noundef %0, i32 noundef %1) #0 {
  %3 = alloca i32, align 4
  %4 = alloca ptr, align 8
  %5 = alloca i32, align 4
  %6 = alloca ptr, align 8
  %7 = alloca i32, align 4
  store ptr %0, ptr %4, align 8, !tbaa !14
  store i32 %1, ptr %5, align 4, !tbaa !43
  call void @llvm.lifetime.start.p0(i64 8, ptr %6) #14
  %8 = load ptr, ptr @the_repository, align 8, !tbaa !19
  call void @prepare_alt_odb(ptr noundef %8)
  %9 = load ptr, ptr @the_repository, align 8, !tbaa !19
  %10 = getelementptr inbounds nuw %struct.repository, ptr %9, i32 0, i32 2
  %11 = load ptr, ptr %10, align 8, !tbaa !64
  %12 = getelementptr inbounds nuw %struct.raw_object_store, ptr %11, i32 0, i32 0
  %13 = load ptr, ptr %12, align 8, !tbaa !65
  %14 = getelementptr inbounds nuw %struct.object_directory, ptr %13, i32 0, i32 0
  %15 = load ptr, ptr %14, align 8, !tbaa !97
  store ptr %15, ptr %6, align 8, !tbaa !78
  br label %16

16:                                               ; preds = %27, %2
  %17 = load ptr, ptr %6, align 8, !tbaa !78
  %18 = icmp ne ptr %17, null
  br i1 %18, label %19, label %31

19:                                               ; preds = %16
  %20 = load ptr, ptr %6, align 8, !tbaa !78
  %21 = load ptr, ptr %4, align 8, !tbaa !14
  %22 = load i32, ptr %5, align 4, !tbaa !43
  %23 = call i32 @check_and_freshen_odb(ptr noundef %20, ptr noundef %21, i32 noundef %22)
  %24 = icmp ne i32 %23, 0
  br i1 %24, label %25, label %26

25:                                               ; preds = %19
  store i32 1, ptr %3, align 4
  store i32 1, ptr %7, align 4
  br label %32

26:                                               ; preds = %19
  br label %27

27:                                               ; preds = %26
  %28 = load ptr, ptr %6, align 8, !tbaa !78
  %29 = getelementptr inbounds nuw %struct.object_directory, ptr %28, i32 0, i32 0
  %30 = load ptr, ptr %29, align 8, !tbaa !97
  store ptr %30, ptr %6, align 8, !tbaa !78
  br label %16, !llvm.loop !105

31:                                               ; preds = %16
  store i32 0, ptr %3, align 4
  store i32 1, ptr %7, align 4
  br label %32

32:                                               ; preds = %31, %25
  call void @llvm.lifetime.end.p0(i64 8, ptr %6) #14
  %33 = load i32, ptr %3, align 4
  ret i32 %33
}

; Function Attrs: nounwind uwtable
define dso_local i32 @has_loose_object_nonlocal(ptr noundef %0) #0 {
  %2 = alloca ptr, align 8
  store ptr %0, ptr %2, align 8, !tbaa !14
  %3 = load ptr, ptr %2, align 8, !tbaa !14
  %4 = call i32 @check_and_freshen_nonlocal(ptr noundef %3, i32 noundef 0)
  ret i32 %4
}