; Function Attrs: nounwind uwtable
define dso_local range(i32 0, 2) i32 @has_loose_object_nonlocal(ptr noundef readonly captures(none) %0) local_unnamed_addr #1 {
  %2 = load ptr, ptr @the_repository, align 8, !tbaa !9
  tail call void @prepare_alt_odb(ptr noundef %2)
  %3 = load ptr, ptr @the_repository, align 8, !tbaa !9
  %4 = getelementptr inbounds nuw i8, ptr %3, i64 16
  %5 = load ptr, ptr %4, align 8, !tbaa !54
  %6 = load ptr, ptr %5, align 8, !tbaa !55
  %.09.i = load ptr, ptr %6, align 8, !tbaa !88
  %.not10.i = icmp eq ptr %.09.i, null
  br i1 %.not10.i, label %check_and_freshen_nonlocal.exit, label %.lr.ph.split.us.i

.lr.ph.split.us.i:                                ; preds = %1, %check_and_freshen_odb.exit.us.i
  %.011.us.i = phi ptr [ %.0.us.i, %check_and_freshen_odb.exit.us.i ], [ %.09.i, %1 ]
  %7 = tail call fastcc ptr @odb_loose_path(ptr noundef nonnull readonly %.011.us.i, ptr noundef nonnull @check_and_freshen_odb.path, ptr noundef readonly %0)
  %8 = load ptr, ptr getelementptr inbounds nuw (i8, ptr @check_and_freshen_odb.path, i64 16), align 8, !tbaa !49
  %9 = tail call i32 @access(ptr noundef readonly %8, i32 noundef 0) #27
  %.not.i.i.us.i = icmp eq i32 %9, 0
  br i1 %.not.i.i.us.i, label %check_and_freshen_nonlocal.exit, label %check_and_freshen_odb.exit.us.i

check_and_freshen_odb.exit.us.i:                  ; preds = %.lr.ph.split.us.i
  %.0.us.i = load ptr, ptr %.011.us.i, align 8, !tbaa !88
  %.not.us.i = icmp eq ptr %.0.us.i, null
  br i1 %.not.us.i, label %check_and_freshen_nonlocal.exit, label %.lr.ph.split.us.i, !llvm.loop !99

check_and_freshen_nonlocal.exit:                  ; preds = %.lr.ph.split.us.i, %check_and_freshen_odb.exit.us.i, %1
  %.05.i = phi i32 [ 0, %1 ], [ 0, %check_and_freshen_odb.exit.us.i ], [ 1, %.lr.ph.split.us.i ]
  ret i32 %.05.i
}